; Function Attrs: mustprogress uwtable
define void @_ZN17DisplayFilterEdit11changeEventEP6QEvent(ptr noundef nonnull align 8 dereferenceable(352) %0, ptr noundef %1) unnamed_addr #2 align 2 {
  %.not = icmp eq ptr %1, null
  br i1 %.not, label %7, label %3

3:                                                ; preds = %2
  %4 = getelementptr inbounds i8, ptr %1, i64 8
  %5 = load i16, ptr %4, align 8
  %cond = icmp eq i16 %5, 89
  br i1 %cond, label %6, label %7

6:                                                ; preds = %3
  tail call void @_ZN17DisplayFilterEdit25setDefaultPlaceholderTextEv(ptr noundef nonnull align 8 dereferenceable(352) %0)
  br label %7

7:                                                ; preds = %6, %3, %2
  tail call void @_ZN9QLineEdit11changeEventEP6QEvent(ptr noundef nonnull align 8 dereferenceable(40) %0, ptr noundef %1)
  ret void
}